target datalayout = "e-m:e-p270:32:32-p271:32:32-p272:64:64-i64:64-i128:128-f80:128-n8:16:32:64-S128"
target triple = "x86_64-pc-linux-gnu"

%struct.__mm_storel_epi64_struct = type { i64 }
%struct.__storeu_si128 = type { <2 x i64> }
%struct.__loadu_ps = type { <4 x float> }

@stbir__s32_32768 = hidden global <2 x i64> splat (i64 140737488388096), align 16
@stbir__s16_32768 = hidden global <2 x i64> splat (i64 -9223231297218904064), align 16

; Function Attrs: alwaysinline nounwind uwtable
define internal void @_mm_storel_epi64(ptr noundef %0, <2 x i64> noundef %1) #13 {
  %3 = alloca ptr, align 8
  %4 = alloca <2 x i64>, align 16
  store ptr %0, ptr %3, align 8
  store <2 x i64> %1, ptr %4, align 16
  %5 = load <2 x i64>, ptr %4, align 16
  %6 = extractelement <2 x i64> %5, i32 0
  %7 = load ptr, ptr %3, align 8
  %8 = getelementptr inbounds nuw %struct.__mm_storel_epi64_struct, ptr %7, i32 0, i32 0
  store i64 %6, ptr %8, align 1
  ret void
}

; Function Attrs: alwaysinline nounwind uwtable
define internal void @_mm_storeu_si128(ptr noundef %0, <2 x i64> noundef %1) #13 {
  %3 = alloca ptr, align 8
  %4 = alloca <2 x i64>, align 16
  store ptr %0, ptr %3, align 8
  store <2 x i64> %1, ptr %4, align 16
  %5 = load <2 x i64>, ptr %4, align 16
  %6 = load ptr, ptr %3, align 8
  %7 = getelementptr inbounds nuw %struct.__storeu_si128, ptr %6, i32 0, i32 0
  store <2 x i64> %5, ptr %7, align 1
  ret void
}

; Function Attrs: alwaysinline nounwind uwtable
define internal <2 x i64> @_mm_sub_epi16(<2 x i64> noundef %0, <2 x i64> noundef %1) #13 {
  %3 = alloca <2 x i64>, align 16
  %4 = alloca <2 x i64>, align 16
  store <2 x i64> %0, ptr %3, align 16
  store <2 x i64> %1, ptr %4, align 16
  %5 = load <2 x i64>, ptr %3, align 16
  %6 = bitcast <2 x i64> %5 to <8 x i16>
  %7 = load <2 x i64>, ptr %4, align 16
  %8 = bitcast <2 x i64> %7 to <8 x i16>
  %9 = sub <8 x i16> %6, %8
  %10 = bitcast <8 x i16> %9 to <2 x i64>
  ret <2 x i64> %10
}

; Function Attrs: alwaysinline nounwind uwtable
define internal <2 x i64> @_mm_packs_epi32(<2 x i64> noundef %0, <2 x i64> noundef %1) #13 {
  %3 = alloca <2 x i64>, align 16
  %4 = alloca <2 x i64>, align 16
  store <2 x i64> %0, ptr %3, align 16
  store <2 x i64> %1, ptr %4, align 16
  %5 = load <2 x i64>, ptr %3, align 16
  %6 = bitcast <2 x i64> %5 to <4 x i32>
  %7 = load <2 x i64>, ptr %4, align 16
  %8 = bitcast <2 x i64> %7 to <4 x i32>
  %9 = call <8 x i16> @llvm.x86.sse2.packssdw.128(<4 x i32> %6, <4 x i32> %8)
  %10 = bitcast <8 x i16> %9 to <2 x i64>
  ret <2 x i64> %10
}

; Function Attrs: alwaysinline nounwind uwtable
define internal <2 x i64> @_mm_sub_epi32(<2 x i64> noundef %0, <2 x i64> noundef %1) #13 {
  %3 = alloca <2 x i64>, align 16
  %4 = alloca <2 x i64>, align 16
  store <2 x i64> %0, ptr %3, align 16
  store <2 x i64> %1, ptr %4, align 16
  %5 = load <2 x i64>, ptr %3, align 16
  %6 = bitcast <2 x i64> %5 to <4 x i32>
  %7 = load <2 x i64>, ptr %4, align 16
  %8 = bitcast <2 x i64> %7 to <4 x i32>
  %9 = sub <4 x i32> %6, %8
  %10 = bitcast <4 x i32> %9 to <2 x i64>
  ret <2 x i64> %10
}

; Function Attrs: alwaysinline nounwind uwtable
define internal <2 x i64> @_mm_cvttps_epi32(<4 x float> noundef %0) #13 {
  %2 = alloca <4 x float>, align 16
  store <4 x float> %0, ptr %2, align 16
  %3 = load <4 x float>, ptr %2, align 16
  %4 = call <4 x i32> @llvm.x86.sse2.cvttps2dq(<4 x float> %3)
  %5 = bitcast <4 x i32> %4 to <2 x i64>
  ret <2 x i64> %5
}

; Function Attrs: alwaysinline nounwind uwtable
define internal <4 x float> @_mm_max_ps(<4 x float> noundef %0, <4 x float> noundef %1) #13 {
  %3 = alloca <4 x float>, align 16
  %4 = alloca <4 x float>, align 16
  store <4 x float> %0, ptr %3, align 16
  store <4 x float> %1, ptr %4, align 16
  %5 = load <4 x float>, ptr %3, align 16
  %6 = load <4 x float>, ptr %4, align 16
  %7 = call <4 x float> @llvm.x86.sse.max.ps(<4 x float> %5, <4 x float> %6)
  ret <4 x float> %7
}

; Function Attrs: alwaysinline nounwind uwtable
define internal <4 x float> @_mm_setzero_ps() #13 {
  %1 = alloca <4 x float>, align 16
  store <4 x float> zeroinitializer, ptr %1, align 16
  %2 = load <4 x float>, ptr %1, align 16
  ret <4 x float> %2
}

; Function Attrs: alwaysinline nounwind uwtable
define internal <4 x float> @_mm_min_ps(<4 x float> noundef %0, <4 x float> noundef %1) #13 {
  %3 = alloca <4 x float>, align 16
  %4 = alloca <4 x float>, align 16
  store <4 x float> %0, ptr %3, align 16
  store <4 x float> %1, ptr %4, align 16
  %5 = load <4 x float>, ptr %3, align 16
  %6 = load <4 x float>, ptr %4, align 16
  %7 = call <4 x float> @llvm.x86.sse.min.ps(<4 x float> %5, <4 x float> %6)
  ret <4 x float> %7
}

; Function Attrs: alwaysinline nounwind uwtable
define internal <4 x float> @_mm_castsi128_ps(<2 x i64> noundef %0) #13 {
  %2 = alloca <2 x i64>, align 16
  store <2 x i64> %0, ptr %2, align 16
  %3 = load <2 x i64>, ptr %2, align 16
  %4 = bitcast <2 x i64> %3 to <4 x float>
  ret <4 x float> %4
}

; Function Attrs: alwaysinline nounwind uwtable
define internal <2 x i64> @_mm_castps_si128(<4 x float> noundef %0) #13 {
  %2 = alloca <4 x float>, align 16
  store <4 x float> %0, ptr %2, align 16
  %3 = load <4 x float>, ptr %2, align 16
  %4 = bitcast <4 x float> %3 to <2 x i64>
  ret <2 x i64> %4
}

; Function Attrs: alwaysinline nounwind uwtable
define internal <4 x float> @_mm_add_ps(<4 x float> noundef %0, <4 x float> noundef %1) #13 {
  %3 = alloca <4 x float>, align 16
  %4 = alloca <4 x float>, align 16
  store <4 x float> %0, ptr %3, align 16
  store <4 x float> %1, ptr %4, align 16
  %5 = load <4 x float>, ptr %3, align 16
  %6 = load <4 x float>, ptr %4, align 16
  %7 = fadd <4 x float> %5, %6
  ret <4 x float> %7
}

; Function Attrs: alwaysinline nounwind uwtable
define internal <4 x float> @_mm_loadu_ps(ptr noundef %0) #13 {
  %2 = alloca ptr, align 8
  store ptr %0, ptr %2, align 8
  %3 = load ptr, ptr %2, align 8
  %4 = getelementptr inbounds nuw %struct.__loadu_ps, ptr %3, i32 0, i32 0
  %5 = load <4 x float>, ptr %4, align 1
  ret <4 x float> %5
}

; Function Attrs: nounwind uwtable
define internal void @stbir__encode_uint16_linear_ABGR(ptr noundef %0, i32 noundef %1, ptr noundef %2) #12 {
  %4 = alloca ptr, align 8
  %5 = alloca i32, align 4
  %6 = alloca ptr, align 8
  %7 = alloca ptr, align 8
  %8 = alloca ptr, align 8
  %9 = alloca ptr, align 8
  %10 = alloca <4 x float>, align 16
  %11 = alloca <4 x float>, align 16
  %12 = alloca <2 x i64>, align 16
  %13 = alloca <2 x i64>, align 16
  %14 = alloca <2 x i64>, align 16
  %15 = alloca i32, align 4
  %16 = alloca <4 x float>, align 16
  %17 = alloca <2 x i64>, align 16
  %18 = alloca <2 x i64>, align 16
  %19 = alloca <2 x i64>, align 16
  store ptr %0, ptr %4, align 8
  store i32 %1, ptr %5, align 4
  store ptr %2, ptr %6, align 8
  call void @llvm.lifetime.start.p0(i64 8, ptr %7) #19
  %20 = load ptr, ptr %4, align 8
  store ptr %20, ptr %7, align 8
  call void @llvm.lifetime.start.p0(i64 8, ptr %8) #19
  %21 = load ptr, ptr %7, align 8
  %22 = load i32, ptr %5, align 4
  %23 = sext i32 %22 to i64
  %24 = getelementptr inbounds i16, ptr %21, i64 %23
  store ptr %24, ptr %8, align 8
  %25 = load i32, ptr %5, align 4
  %26 = icmp sge i32 %25, 8
  br i1 %26, label %27, label %101

27:                                               ; preds = %3
  call void @llvm.lifetime.start.p0(i64 8, ptr %9) #19
  %28 = load ptr, ptr %6, align 8
  %29 = load i32, ptr %5, align 4
  %30 = sext i32 %29 to i64
  %31 = getelementptr inbounds float, ptr %28, i64 %30
  %32 = getelementptr inbounds float, ptr %31, i64 -8
  store ptr %32, ptr %9, align 8
  %33 = load ptr, ptr %8, align 8
  %34 = getelementptr inbounds i16, ptr %33, i64 -8
  store ptr %34, ptr %8, align 8
  br label %35

35:                                               ; preds = %99, %97, %27
  call void @llvm.lifetime.start.p0(i64 16, ptr %10) #19
  call void @llvm.lifetime.start.p0(i64 16, ptr %11) #19
  call void @llvm.lifetime.start.p0(i64 16, ptr %12) #19
  %36 = load ptr, ptr %6, align 8
  call void asm sideeffect "", "r,~{dirflag},~{fpsr},~{flags}"(ptr %36) #19, !srcloc !307
  %37 = load ptr, ptr %6, align 8
  %38 = call <4 x float> @_mm_loadu_ps(ptr noundef %37)
  %39 = call <4 x float> @_mm_add_ps(<4 x float> noundef splat (float 5.000000e-01), <4 x float> noundef %38)
  store <4 x float> %39, ptr %10, align 16
  %40 = load ptr, ptr %6, align 8
  %41 = getelementptr inbounds float, ptr %40, i64 4
  %42 = call <4 x float> @_mm_loadu_ps(ptr noundef %41)
  %43 = call <4 x float> @_mm_add_ps(<4 x float> noundef splat (float 5.000000e-01), <4 x float> noundef %42)
  store <4 x float> %43, ptr %11, align 16
  %44 = load <4 x float>, ptr %10, align 16
  %45 = call <2 x i64> @_mm_castps_si128(<4 x float> noundef %44)
  %46 = bitcast <2 x i64> %45 to <4 x i32>
  %47 = shufflevector <4 x i32> %46, <4 x i32> poison, <4 x i32> <i32 3, i32 2, i32 1, i32 0>
  %48 = bitcast <4 x i32> %47 to <2 x i64>
  %49 = call <4 x float> @_mm_castsi128_ps(<2 x i64> noundef %48)
  store <4 x float> %49, ptr %10, align 16
  %50 = load <4 x float>, ptr %11, align 16
  %51 = call <2 x i64> @_mm_castps_si128(<4 x float> noundef %50)
  %52 = bitcast <2 x i64> %51 to <4 x i32>
  %53 = shufflevector <4 x i32> %52, <4 x i32> poison, <4 x i32> <i32 3, i32 2, i32 1, i32 0>
  %54 = bitcast <4 x i32> %53 to <2 x i64>
  %55 = call <4 x float> @_mm_castsi128_ps(<2 x i64> noundef %54)
  store <4 x float> %55, ptr %11, align 16
  call void @llvm.lifetime.start.p0(i64 16, ptr %13) #19
  call void @llvm.lifetime.start.p0(i64 16, ptr %14) #19
  %56 = load <4 x float>, ptr %10, align 16
  %57 = call <4 x float> @_mm_min_ps(<4 x float> noundef %56, <4 x float> noundef splat (float 6.553500e+04))
  %58 = call <4 x float> @_mm_setzero_ps()
  %59 = call <4 x float> @_mm_max_ps(<4 x float> noundef %57, <4 x float> noundef %58)
  %60 = call <2 x i64> @_mm_cvttps_epi32(<4 x float> noundef %59)
  store <2 x i64> %60, ptr %13, align 16
  %61 = load <4 x float>, ptr %11, align 16
  %62 = call <4 x float> @_mm_min_ps(<4 x float> noundef %61, <4 x float> noundef splat (float 6.553500e+04))
  %63 = call <4 x float> @_mm_setzero_ps()
  %64 = call <4 x float> @_mm_max_ps(<4 x float> noundef %62, <4 x float> noundef %63)
  %65 = call <2 x i64> @_mm_cvttps_epi32(<4 x float> noundef %64)
  store <2 x i64> %65, ptr %14, align 16
  %66 = load <2 x i64>, ptr %13, align 16
  %67 = load <2 x i64>, ptr @stbir__s32_32768, align 16
  %68 = call <2 x i64> @_mm_sub_epi32(<2 x i64> noundef %66, <2 x i64> noundef %67)
  store <2 x i64> %68, ptr %13, align 16
  %69 = load <2 x i64>, ptr %14, align 16
  %70 = load <2 x i64>, ptr @stbir__s32_32768, align 16
  %71 = call <2 x i64> @_mm_sub_epi32(<2 x i64> noundef %69, <2 x i64> noundef %70)
  store <2 x i64> %71, ptr %14, align 16
  %72 = load <2 x i64>, ptr %13, align 16
  %73 = load <2 x i64>, ptr %14, align 16
  %74 = call <2 x i64> @_mm_packs_epi32(<2 x i64> noundef %72, <2 x i64> noundef %73)
  store <2 x i64> %74, ptr %12, align 16
  %75 = load <2 x i64>, ptr %12, align 16
  %76 = load <2 x i64>, ptr @stbir__s16_32768, align 16
  %77 = call <2 x i64> @_mm_sub_epi16(<2 x i64> noundef %75, <2 x i64> noundef %76)
  store <2 x i64> %77, ptr %12, align 16
  call void @llvm.lifetime.end.p0(i64 16, ptr %14) #19
  call void @llvm.lifetime.end.p0(i64 16, ptr %13) #19
  %78 = load ptr, ptr %7, align 8
  %79 = load <2 x i64>, ptr %12, align 16
  call void @_mm_storeu_si128(ptr noundef %78, <2 x i64> noundef %79)
  %80 = load ptr, ptr %6, align 8
  %81 = getelementptr inbounds float, ptr %80, i64 8
  store ptr %81, ptr %6, align 8
  %82 = load ptr, ptr %7, align 8
  %83 = getelementptr inbounds i16, ptr %82, i64 8
  store ptr %83, ptr %7, align 8
  %84 = load ptr, ptr %7, align 8
  %85 = load ptr, ptr %8, align 8
  %86 = icmp ule ptr %84, %85
  br i1 %86, label %87, label %88

87:                                               ; preds = %35
  store i32 3, ptr %15, align 4
  br label %97, !llvm.loop !308

88:                                               ; preds = %35
  %89 = load ptr, ptr %7, align 8
  %90 = load ptr, ptr %8, align 8
  %91 = getelementptr inbounds i16, ptr %90, i64 8
  %92 = icmp eq ptr %89, %91
  br i1 %92, label %93, label %94

93:                                               ; preds = %88
  store i32 2, ptr %15, align 4
  br label %97

94:                                               ; preds = %88
  %95 = load ptr, ptr %8, align 8
  store ptr %95, ptr %7, align 8
  %96 = load ptr, ptr %9, align 8
  store ptr %96, ptr %6, align 8
  store i32 0, ptr %15, align 4
  br label %97

97:                                               ; preds = %94, %93, %87
  call void @llvm.lifetime.end.p0(i64 16, ptr %12) #19
  call void @llvm.lifetime.end.p0(i64 16, ptr %11) #19
  call void @llvm.lifetime.end.p0(i64 16, ptr %10) #19
  %98 = load i32, ptr %15, align 4
  switch i32 %98, label %155 [
    i32 0, label %99
    i32 3, label %35
    i32 2, label %100
  ]

99:                                               ; preds = %97
  br label %35, !llvm.loop !308

100:                                              ; preds = %97
  store i32 1, ptr %15, align 4
  call void @llvm.lifetime.end.p0(i64 8, ptr %9) #19
  br label %152

101:                                              ; preds = %3
  %102 = load ptr, ptr %7, align 8
  %103 = getelementptr inbounds i16, ptr %102, i64 4
  store ptr %103, ptr %7, align 8
  br label %104

104:                                              ; preds = %108, %101
  %105 = load ptr, ptr %7, align 8
  %106 = load ptr, ptr %8, align 8
  %107 = icmp ule ptr %105, %106
  br i1 %107, label %108, label %149

108:                                              ; preds = %104
  call void @llvm.lifetime.start.p0(i64 16, ptr %16) #19
  call void @llvm.lifetime.start.p0(i64 16, ptr %17) #19
  %109 = load ptr, ptr %6, align 8
  call void asm sideeffect "", "r,~{dirflag},~{fpsr},~{flags}"(ptr %109) #19, !srcloc !309
  %110 = load ptr, ptr %6, align 8
  %111 = call <4 x float> @_mm_loadu_ps(ptr noundef %110)
  store <4 x float> %111, ptr %16, align 16
  %112 = load <4 x float>, ptr %16, align 16
  %113 = call <4 x float> @_mm_add_ps(<4 x float> noundef splat (float 5.000000e-01), <4 x float> noundef %112)
  store <4 x float> %113, ptr %16, align 16
  %114 = load <4 x float>, ptr %16, align 16
  %115 = call <2 x i64> @_mm_castps_si128(<4 x float> noundef %114)
  %116 = bitcast <2 x i64> %115 to <4 x i32>
  %117 = shufflevector <4 x i32> %116, <4 x i32> poison, <4 x i32> <i32 3, i32 2, i32 1, i32 0>
  %118 = bitcast <4 x i32> %117 to <2 x i64>
  %119 = call <4 x float> @_mm_castsi128_ps(<2 x i64> noundef %118)
  store <4 x float> %119, ptr %16, align 16
  call void @llvm.lifetime.start.p0(i64 16, ptr %18) #19
  call void @llvm.lifetime.start.p0(i64 16, ptr %19) #19
  %120 = load <4 x float>, ptr %16, align 16
  %121 = call <4 x float> @_mm_min_ps(<4 x float> noundef %120, <4 x float> noundef splat (float 6.553500e+04))
  %122 = call <4 x float> @_mm_setzero_ps()
  %123 = call <4 x float> @_mm_max_ps(<4 x float> noundef %121, <4 x float> noundef %122)
  %124 = call <2 x i64> @_mm_cvttps_epi32(<4 x float> noundef %123)
  store <2 x i64> %124, ptr %18, align 16
  %125 = load <4 x float>, ptr %16, align 16
  %126 = call <4 x float> @_mm_min_ps(<4 x float> noundef %125, <4 x float> noundef splat (float 6.553500e+04))
  %127 = call <4 x float> @_mm_setzero_ps()
  %128 = call <4 x float> @_mm_max_ps(<4 x float> noundef %126, <4 x float> noundef %127)
  %129 = call <2 x i64> @_mm_cvttps_epi32(<4 x float> noundef %128)
  store <2 x i64> %129, ptr %19, align 16
  %130 = load <2 x i64>, ptr %18, align 16
  %131 = load <2 x i64>, ptr @stbir__s32_32768, align 16
  %132 = call <2 x i64> @_mm_sub_epi32(<2 x i64> noundef %130, <2 x i64> noundef %131)
  store <2 x i64> %132, ptr %18, align 16
  %133 = load <2 x i64>, ptr %19, align 16
  %134 = load <2 x i64>, ptr @stbir__s32_32768, align 16
  %135 = call <2 x i64> @_mm_sub_epi32(<2 x i64> noundef %133, <2 x i64> noundef %134)
  store <2 x i64> %135, ptr %19, align 16
  %136 = load <2 x i64>, ptr %18, align 16
  %137 = load <2 x i64>, ptr %19, align 16
  %138 = call <2 x i64> @_mm_packs_epi32(<2 x i64> noundef %136, <2 x i64> noundef %137)
  store <2 x i64> %138, ptr %17, align 16
  %139 = load <2 x i64>, ptr %17, align 16
  %140 = load <2 x i64>, ptr @stbir__s16_32768, align 16
  %141 = call <2 x i64> @_mm_sub_epi16(<2 x i64> noundef %139, <2 x i64> noundef %140)
  store <2 x i64> %141, ptr %17, align 16
  call void @llvm.lifetime.end.p0(i64 16, ptr %19) #19
  call void @llvm.lifetime.end.p0(i64 16, ptr %18) #19
  %142 = load ptr, ptr %7, align 8
  %143 = getelementptr inbounds i16, ptr %142, i64 -4
  %144 = load <2 x i64>, ptr %17, align 16
  call void @_mm_storel_epi64(ptr noundef %143, <2 x i64> noundef %144)
  %145 = load ptr, ptr %7, align 8
  %146 = getelementptr inbounds i16, ptr %145, i64 4
  store ptr %146, ptr %7, align 8
  %147 = load ptr, ptr %6, align 8
  %148 = getelementptr inbounds float, ptr %147, i64 4
  store ptr %148, ptr %6, align 8
  call void @llvm.lifetime.end.p0(i64 16, ptr %17) #19
  call void @llvm.lifetime.end.p0(i64 16, ptr %16) #19
  br label %104, !llvm.loop !310

149:                                              ; preds = %104
  %150 = load ptr, ptr %7, align 8
  %151 = getelementptr inbounds i16, ptr %150, i64 -4
  store ptr %151, ptr %7, align 8
  store i32 0, ptr %15, align 4
  br label %152

152:                                              ; preds = %149, %100
  call void @llvm.lifetime.end.p0(i64 8, ptr %8) #19
  call void @llvm.lifetime.end.p0(i64 8, ptr %7) #19
  %153 = load i32, ptr %15, align 4
  switch i32 %153, label %155 [
    i32 0, label %154
    i32 1, label %154
  ]

154:                                              ; preds = %152, %152
  ret void

155:                                              ; preds = %152, %97
  unreachable
}